; Function Attrs: nounwind uwtable
define i64 @H5Aget_type(i64 noundef %0) local_unnamed_addr #0 {
  %2 = alloca %struct.H5VL_attr_get_args_t, align 8
  %3 = load i8, ptr @H5_libinit_g, align 1
  %4 = trunc i8 %3 to i1
  %5 = load i8, ptr @H5_libterm_g, align 1
  %6 = trunc i8 %5 to i1
  %7 = select i1 %4, i1 true, i1 %6
  br i1 %7, label %15, label %8

8:                                                ; preds = %1
  %9 = tail call i32 @H5_init_library() #4
  %10 = icmp slt i32 %9, 0
  br i1 %10, label %11, label %15

11:                                               ; preds = %8
  %12 = load i64, ptr @H5E_FUNC_g, align 8
  %13 = load i64, ptr @H5E_CANTINIT_g, align 8
  %14 = tail call i32 (ptr, ptr, i32, i64, i64, ptr, ...) @H5E_printf_stack(ptr noundef nonnull @.str, ptr noundef nonnull @__func__.H5Aget_type, i32 noundef 1134, i64 noundef %12, i64 noundef %13, ptr noundef nonnull @.str.1) #4
  br label %.thread19

15:                                               ; preds = %8, %1
  %16 = tail call i32 @H5CX_push() #4
  %17 = icmp slt i32 %16, 0
  br i1 %17, label %18, label %22

18:                                               ; preds = %15
  %19 = load i64, ptr @H5E_FUNC_g, align 8
  %20 = load i64, ptr @H5E_CANTSET_g, align 8
  %21 = tail call i32 (ptr, ptr, i32, i64, i64, ptr, ...) @H5E_printf_stack(ptr noundef nonnull @.str, ptr noundef nonnull @__func__.H5Aget_type, i32 noundef 1134, i64 noundef %19, i64 noundef %20, ptr noundef nonnull @.str.2) #4
  br label %.thread19

22:                                               ; preds = %15
  %23 = tail call i32 @H5E_clear_stack() #4
  %24 = tail call ptr @H5I_object_verify(i64 noundef %0, i32 noundef 7) #4
  %25 = icmp eq ptr %24, null
  br i1 %25, label %26, label %30

26:                                               ; preds = %22
  %27 = load i64, ptr @H5E_ARGS_g, align 8
  %28 = load i64, ptr @H5E_BADTYPE_g, align 8
  %29 = tail call i32 (ptr, ptr, i32, i64, i64, ptr, ...) @H5E_printf_stack(ptr noundef nonnull @.str, ptr noundef nonnull @__func__.H5Aget_type, i32 noundef 1138, i64 noundef %27, i64 noundef %28, ptr noundef nonnull @.str.37) #4
  br label %.thread25

30:                                               ; preds = %22
  store i32 5, ptr %2, align 8
  %31 = getelementptr inbounds i8, ptr %2, i64 8
  store i64 -1, ptr %31, align 8
  %32 = load i64, ptr @H5P_LST_DATASET_XFER_ID_g, align 8
  %33 = call i32 @H5VL_attr_get(ptr noundef nonnull %24, ptr noundef nonnull %2, i64 noundef %32, ptr noundef null) #4
  %34 = icmp slt i32 %33, 0
  br i1 %34, label %35, label %40

35:                                               ; preds = %30
  %36 = load i64, ptr @H5E_ATTR_g, align 8
  %37 = load i64, ptr @H5E_CANTGET_g, align 8
  %38 = call i32 (ptr, ptr, i32, i64, i64, ptr, ...) @H5E_printf_stack(ptr noundef nonnull @.str, ptr noundef nonnull @__func__.H5Aget_type, i32 noundef 1146, i64 noundef %36, i64 noundef %37, ptr noundef nonnull @.str.39) #4
  br label %.thread25

.thread25:                                        ; preds = %35, %26
  %39 = call i32 @H5CX_pop(i1 noundef zeroext true) #4
  br label %.thread19

40:                                               ; preds = %30
  %41 = load i64, ptr %31, align 8
  %42 = call i32 @H5CX_pop(i1 noundef zeroext true) #4
  br label %44

.thread19:                                        ; preds = %18, %11, %.thread25
  %43 = call i32 @H5E_dump_api_stack() #4
  br label %44

44:                                               ; preds = %40, %.thread19
  %.091422 = phi i64 [ -1, %.thread19 ], [ %41, %40 ]
  ret i64 %.091422
}